; Function Attrs: nounwind uwtable
define ptr @l_Lean_resolveGlobalName___at_Lean_Elab_OpenDecl_resolveId___spec__3___rarg___lambda__4(ptr noundef %0, ptr noundef %1, ptr noundef %2, ptr noundef %3, ptr noundef %4, ptr noundef %5) #0 {
  %7 = ptrtoint ptr %0 to i64
  %8 = and i64 %7, 1
  %.not = icmp eq i64 %8, 0
  br i1 %.not, label %9, label %lean_inc.exit19

9:                                                ; preds = %6
  %.val.i = load i32, ptr %0, align 4, !tbaa !8
  %10 = icmp sgt i32 %.val.i, 0
  br i1 %10, label %11, label %13, !prof !11

11:                                               ; preds = %9
  %12 = add nuw i32 %.val.i, 1
  store i32 %12, ptr %0, align 4, !tbaa !8
  br label %lean_inc.exit19

13:                                               ; preds = %9
  %.not.i = icmp eq i32 %.val.i, 0
  br i1 %.not.i, label %lean_inc.exit19, label %14

14:                                               ; preds = %13
  tail call void @lean_inc_ref_cold(ptr noundef nonnull %0) #6
  br label %lean_inc.exit19

lean_inc.exit19:                                  ; preds = %14, %13, %11, %6
  tail call void @lean_inc_heartbeat() #6
  %15 = tail call noalias ptr @mi_malloc_small(i64 noundef 32) #6
  %16 = icmp eq ptr %15, null
  br i1 %16, label %17, label %lean_alloc_closure.exit

17:                                               ; preds = %lean_inc.exit19
  tail call void @lean_internal_panic_out_of_memory() #7
  unreachable

lean_alloc_closure.exit:                          ; preds = %lean_inc.exit19
  %18 = getelementptr inbounds nuw i8, ptr %15, i64 4
  store i32 1, ptr %15, align 4, !tbaa !8
  store i32 -184549344, ptr %18, align 4
  %19 = getelementptr inbounds nuw i8, ptr %15, i64 8
  store ptr @l_Lean_resolveGlobalName___at_Lean_Elab_OpenDecl_resolveId___spec__3___rarg___lambda__2, ptr %19, align 8, !tbaa !4
  %20 = getelementptr inbounds nuw i8, ptr %15, i64 16
  store i16 2, ptr %20, align 8, !tbaa !12
  %21 = getelementptr inbounds nuw i8, ptr %15, i64 18
  store i16 1, ptr %21, align 2, !tbaa !12
  %22 = getelementptr inbounds nuw i8, ptr %15, i64 24
  store ptr %0, ptr %22, align 8, !tbaa !4
  %23 = ptrtoint ptr %1 to i64
  %24 = and i64 %23, 1
  %.not24 = icmp eq i64 %24, 0
  br i1 %.not24, label %25, label %lean_inc.exit

25:                                               ; preds = %lean_alloc_closure.exit
  %.val.i20 = load i32, ptr %1, align 4, !tbaa !8
  %26 = icmp sgt i32 %.val.i20, 0
  br i1 %26, label %27, label %29, !prof !11

27:                                               ; preds = %25
  %28 = add nuw i32 %.val.i20, 1
  store i32 %28, ptr %1, align 4, !tbaa !8
  br label %lean_inc.exit

29:                                               ; preds = %25
  %.not.i21 = icmp eq i32 %.val.i20, 0
  br i1 %.not.i21, label %lean_inc.exit, label %30

30:                                               ; preds = %29
  tail call void @lean_inc_ref_cold(ptr noundef nonnull %1) #6
  br label %lean_inc.exit

lean_inc.exit:                                    ; preds = %30, %29, %27, %lean_alloc_closure.exit
  %31 = tail call ptr @lean_apply_4(ptr noundef %1, ptr noundef nonnull inttoptr (i64 1 to ptr), ptr noundef nonnull inttoptr (i64 1 to ptr), ptr noundef %2, ptr noundef nonnull %15) #6
  tail call void @lean_inc_heartbeat() #6
  %32 = tail call noalias ptr @mi_malloc_small(i64 noundef 56) #6
  %33 = icmp eq ptr %32, null
  br i1 %33, label %34, label %lean_alloc_closure.exit23

34:                                               ; preds = %lean_inc.exit
  tail call void @lean_internal_panic_out_of_memory() #7
  unreachable

lean_alloc_closure.exit23:                        ; preds = %lean_inc.exit
  %35 = getelementptr inbounds nuw i8, ptr %32, i64 4
  store i32 1, ptr %32, align 4, !tbaa !8
  store i32 -184549320, ptr %35, align 4
  %36 = getelementptr inbounds nuw i8, ptr %32, i64 8
  store ptr @l_Lean_resolveGlobalName___at_Lean_Elab_OpenDecl_resolveId___spec__3___rarg___lambda__3, ptr %36, align 8, !tbaa !4
  %37 = getelementptr inbounds nuw i8, ptr %32, i64 16
  store i16 5, ptr %37, align 8, !tbaa !12
  %38 = getelementptr inbounds nuw i8, ptr %32, i64 18
  store i16 4, ptr %38, align 2, !tbaa !12
  %39 = getelementptr inbounds nuw i8, ptr %32, i64 24
  store ptr %3, ptr %39, align 8, !tbaa !4
  %40 = getelementptr inbounds nuw i8, ptr %32, i64 32
  store ptr %5, ptr %40, align 8, !tbaa !4
  %41 = getelementptr inbounds nuw i8, ptr %32, i64 40
  store ptr %4, ptr %41, align 8, !tbaa !4
  %42 = getelementptr inbounds nuw i8, ptr %32, i64 48
  store ptr %0, ptr %42, align 8, !tbaa !4
  %43 = tail call ptr @lean_apply_4(ptr noundef %1, ptr noundef nonnull inttoptr (i64 1 to ptr), ptr noundef nonnull inttoptr (i64 1 to ptr), ptr noundef %31, ptr noundef nonnull %32) #6
  ret ptr %43
}